; Function Attrs: mustprogress nounwind uwtable
define hidden void @_ZN14ArchiveBuilder23print_heap_region_statsEP15ArchiveHeapInfom(ptr nocapture noundef nonnull readnone align 8 dereferenceable(1080) %0, ptr nocapture noundef readonly %1, i64 noundef %2) local_unnamed_addr #1 align 2 {
  %4 = load ptr, ptr %1, align 8
  %5 = getelementptr inbounds i8, ptr %1, i64 8
  %6 = load i64, ptr %5, align 8
  %7 = load volatile ptr, ptr getelementptr inbounds (i8, ptr @_ZN16LogTagSetMappingILN6LogTag4typeE14ELS1_0ELS1_0ELS1_0ELS1_0ELS1_0EE7_tagsetE, i64 56), align 8
  %.not = icmp eq ptr %7, null
  br i1 %.not, label %15, label %8

8:                                                ; preds = %3
  %9 = shl i64 %6, 3
  %10 = uitofp i64 %9 to double
  %11 = uitofp i64 %2 to double
  %12 = fdiv double %10, %11
  %13 = fmul double %12, 1.000000e+02
  %14 = ptrtoint ptr %4 to i64
  tail call void (ptr, ...) @_ZN7LogImplILN6LogTag4typeE14ELS1_0ELS1_0ELS1_0ELS1_0ELS1_0EE5writeILN8LogLevel4typeE2EEEvPKcz(ptr noundef nonnull @.str.49, i64 noundef %9, double noundef %13, i64 noundef %9, i64 noundef %14)
  br label %15

15:                                               ; preds = %3, %8
  ret void
}